; ModuleID = '21/1863.c'
source_filename = "21/1863.c"
target datalayout = "e-m:e-p270:32:32-p271:32:32-p272:64:64-i64:64-f80:128-n8:16:32:64-S128"
target triple = "x86_64-pc-linux-gnu"

@.str = private unnamed_addr constant [3 x i8] c"%d\00", align 1
@.str.1 = private unnamed_addr constant [4 x i8] c"%d,\00", align 1

; Function Attrs: noinline nounwind uwtable
define dso_local i32 @main() #0 {
  %1 = alloca i32, align 4
  %2 = alloca i32, align 4
  %3 = alloca [300 x i32], align 16
  %4 = alloca i32, align 4
  %5 = alloca i32, align 4
  %6 = alloca [300 x i32], align 16
  %7 = alloca double, align 8
  %8 = alloca double, align 8
  %9 = alloca [300 x double], align 16
  %10 = alloca double, align 8
  store i32 0, i32* %1, align 4
  %11 = bitcast [300 x i32]* %3 to i8*
  call void @llvm.memset.p0i8.i64(i8* align 16 %11, i8 0, i64 1200, i1 false)
  store i32 0, i32* %5, align 4
  %12 = bitcast [300 x i32]* %6 to i8*
  call void @llvm.memset.p0i8.i64(i8* align 16 %12, i8 0, i64 1200, i1 false)
  store double 0.000000e+00, double* %7, align 8
  %13 = bitcast [300 x double]* %9 to i8*
  call void @llvm.memset.p0i8.i64(i8* align 16 %13, i8 0, i64 2400, i1 false)
  store double 0.000000e+00, double* %10, align 8
  %14 = call i32 (i8*, ...) @__isoc99_scanf(i8* getelementptr inbounds ([3 x i8], [3 x i8]* @.str, i64 0, i64 0), i32* %2)
  store i32 0, i32* %4, align 4
  br label %15

15:                                               ; preds = %31, %0
  %16 = load i32, i32* %4, align 4
  %17 = load i32, i32* %2, align 4
  %18 = icmp slt i32 %16, %17
  br i1 %18, label %19, label %34

19:                                               ; preds = %15
  %20 = load i32, i32* %4, align 4
  %21 = sext i32 %20 to i64
  %22 = getelementptr inbounds [300 x i32], [300 x i32]* %3, i64 0, i64 %21
  %23 = call i32 (i8*, ...) @__isoc99_scanf(i8* getelementptr inbounds ([3 x i8], [3 x i8]* @.str, i64 0, i64 0), i32* %22)
  %24 = load i32, i32* %4, align 4
  %25 = sext i32 %24 to i64
  %26 = getelementptr inbounds [300 x i32], [300 x i32]* %3, i64 0, i64 %25
  %27 = load i32, i32* %26, align 4
  %28 = sitofp i32 %27 to double
  %29 = load double, double* %7, align 8
  %30 = fadd double %29, %28
  store double %30, double* %7, align 8
  br label %31

31:                                               ; preds = %19
  %32 = load i32, i32* %4, align 4
  %33 = add nsw i32 %32, 1
  store i32 %33, i32* %4, align 4
  br label %15

34:                                               ; preds = %15
  %35 = load double, double* %7, align 8
  %36 = load i32, i32* %2, align 4
  %37 = sitofp i32 %36 to double
  %38 = fdiv double %35, %37
  store double %38, double* %8, align 8
  store i32 0, i32* %4, align 4
  br label %39

39:                                               ; preds = %55, %34
  %40 = load i32, i32* %4, align 4
  %41 = load i32, i32* %2, align 4
  %42 = icmp slt i32 %40, %41
  br i1 %42, label %43, label %58

43:                                               ; preds = %39
  %44 = load i32, i32* %4, align 4
  %45 = sext i32 %44 to i64
  %46 = getelementptr inbounds [300 x i32], [300 x i32]* %3, i64 0, i64 %45
  %47 = load i32, i32* %46, align 4
  %48 = sitofp i32 %47 to double
  %49 = load double, double* %8, align 8
  %50 = fsub double %48, %49
  %51 = call double @llvm.fabs.f64(double %50)
  %52 = load i32, i32* %4, align 4
  %53 = sext i32 %52 to i64
  %54 = getelementptr inbounds [300 x double], [300 x double]* %9, i64 0, i64 %53
  store double %51, double* %54, align 8
  br label %55

55:                                               ; preds = %43
  %56 = load i32, i32* %4, align 4
  %57 = add nsw i32 %56, 1
  store i32 %57, i32* %4, align 4
  br label %39

58:                                               ; preds = %39
  store i32 0, i32* %4, align 4
  br label %59

59:                                               ; preds = %76, %58
  %60 = load i32, i32* %4, align 4
  %61 = load i32, i32* %2, align 4
  %62 = icmp slt i32 %60, %61
  br i1 %62, label %63, label %79

63:                                               ; preds = %59
  %64 = load i32, i32* %4, align 4
  %65 = sext i32 %64 to i64
  %66 = getelementptr inbounds [300 x double], [300 x double]* %9, i64 0, i64 %65
  %67 = load double, double* %66, align 8
  %68 = load double, double* %10, align 8
  %69 = fcmp ogt double %67, %68
  br i1 %69, label %70, label %75

70:                                               ; preds = %63
  %71 = load i32, i32* %4, align 4
  %72 = sext i32 %71 to i64
  %73 = getelementptr inbounds [300 x double], [300 x double]* %9, i64 0, i64 %72
  %74 = load double, double* %73, align 8
  store double %74, double* %10, align 8
  br label %75

75:                                               ; preds = %70, %63
  br label %76

76:                                               ; preds = %75
  %77 = load i32, i32* %4, align 4
  %78 = add nsw i32 %77, 1
  store i32 %78, i32* %4, align 4
  br label %59

79:                                               ; preds = %59
  store i32 0, i32* %5, align 4
  store i32 0, i32* %4, align 4
  br label %80

80:                                               ; preds = %102, %79
  %81 = load i32, i32* %4, align 4
  %82 = load i32, i32* %2, align 4
  %83 = icmp slt i32 %81, %82
  br i1 %83, label %84, label %105

84:                                               ; preds = %80
  %85 = load i32, i32* %4, align 4
  %86 = sext i32 %85 to i64
  %87 = getelementptr inbounds [300 x double], [300 x double]* %9, i64 0, i64 %86
  %88 = load double, double* %87, align 8
  %89 = load double, double* %10, align 8
  %90 = fcmp oeq double %88, %89
  br i1 %90, label %91, label %101

91:                                               ; preds = %84
  %92 = load i32, i32* %4, align 4
  %93 = sext i32 %92 to i64
  %94 = getelementptr inbounds [300 x i32], [300 x i32]* %3, i64 0, i64 %93
  %95 = load i32, i32* %94, align 4
  %96 = load i32, i32* %5, align 4
  %97 = sext i32 %96 to i64
  %98 = getelementptr inbounds [300 x i32], [300 x i32]* %6, i64 0, i64 %97
  store i32 %95, i32* %98, align 4
  %99 = load i32, i32* %5, align 4
  %100 = add nsw i32 %99, 1
  store i32 %100, i32* %5, align 4
  br label %101

101:                                              ; preds = %91, %84
  br label %102

102:                                              ; preds = %101
  %103 = load i32, i32* %4, align 4
  %104 = add nsw i32 %103, 1
  store i32 %104, i32* %4, align 4
  br label %80

105:                                              ; preds = %80
  %106 = load i32, i32* %5, align 4
  %107 = icmp eq i32 %106, 1
  br i1 %107, label %108, label %112

108:                                              ; preds = %105
  %109 = getelementptr inbounds [300 x i32], [300 x i32]* %6, i64 0, i64 0
  %110 = load i32, i32* %109, align 16
  %111 = call i32 (i8*, ...) @printf(i8* getelementptr inbounds ([3 x i8], [3 x i8]* @.str, i64 0, i64 0), i32 %110)
  br label %134

112:                                              ; preds = %105
  store i32 0, i32* %4, align 4
  br label %113

113:                                              ; preds = %124, %112
  %114 = load i32, i32* %4, align 4
  %115 = load i32, i32* %5, align 4
  %116 = sub nsw i32 %115, 1
  %117 = icmp slt i32 %114, %116
  br i1 %117, label %118, label %127

118:                                              ; preds = %113
  %119 = load i32, i32* %4, align 4
  %120 = sext i32 %119 to i64
  %121 = getelementptr inbounds [300 x i32], [300 x i32]* %6, i64 0, i64 %120
  %122 = load i32, i32* %121, align 4
  %123 = call i32 (i8*, ...) @printf(i8* getelementptr inbounds ([4 x i8], [4 x i8]* @.str.1, i64 0, i64 0), i32 %122)
  br label %124

124:                                              ; preds = %118
  %125 = load i32, i32* %4, align 4
  %126 = add nsw i32 %125, 1
  store i32 %126, i32* %4, align 4
  br label %113

127:                                              ; preds = %113
  %128 = load i32, i32* %5, align 4
  %129 = sub nsw i32 %128, 1
  %130 = sext i32 %129 to i64
  %131 = getelementptr inbounds [300 x i32], [300 x i32]* %6, i64 0, i64 %130
  %132 = load i32, i32* %131, align 4
  %133 = call i32 (i8*, ...) @printf(i8* getelementptr inbounds ([3 x i8], [3 x i8]* @.str, i64 0, i64 0), i32 %132)
  br label %134

134:                                              ; preds = %127, %108
  ret i32 0
}

; Function Attrs: argmemonly nounwind willreturn
declare void @llvm.memset.p0i8.i64(i8* nocapture writeonly, i8, i64, i1 immarg) #1

declare dso_local i32 @__isoc99_scanf(i8*, ...) #2

; Function Attrs: nounwind readnone speculatable willreturn
declare double @llvm.fabs.f64(double) #3

declare dso_local i32 @printf(i8*, ...) #2


!llvm.module.flags = !{!0}
!llvm.ident = !{!1}

!0 = !{i32 1, !"wchar_size", i32 4}
!1 = !{!"clang version 10.0.0-4ubuntu1 "}
